Certificate:
    Data:
        Version: 3 (0x2)
        Serial Number:
            1d:d9:1f:06:dd:fd:90:26:4e:27:ea:2e:01:4b:31:e6:d2:49:31:1f
        Signature Algorithm: sha256WithRSAEncryption
        Issuer: C=US, ST=California, O=Synadia, OU=nats.io, CN=Certificate Authority 2022-08-27
        Validity
            Not Before: Aug 27 20:23:02 2022 GMT
            Not After : Aug 24 20:23:02 2032 GMT
        Subject: C=US, ST=California, O=Synadia, OU=nats.io, CN=localhost
        Subject Public Key Info:
            Public Key Algorithm: rsaEncryption
                RSA Public-Key: (2048 bit)
                Modulus:
                    00:e6:fb:47:65:cd:c9:a2:2d:af:8b:cd:d5:6a:79:
                    54:3c:07:5f:eb:5a:71:2b:2b:e5:6f:be:31:fb:16:
                    65:68:76:0e:59:e7:e4:57:ca:88:e9:77:d6:41:ad:
                    57:7a:42:b2:d2:54:c4:0f:7c:5b:c1:bc:61:97:e3:
                    22:3a:3e:1e:4a:5d:47:9f:6b:7d:6f:34:e3:8c:86:
                    9d:85:19:29:9a:11:58:44:4c:a1:90:d3:14:61:e1:
                    57:da:01:ea:ce:3f:90:ae:9e:5d:13:6d:2c:89:ca:
                    39:15:6b:b6:9e:32:d7:2a:4c:48:85:2f:b0:1e:d8:
                    4b:62:32:14:eb:32:b6:29:04:34:3c:af:39:b6:8b:
                    52:32:4d:bf:43:5f:9b:fb:0d:43:a6:ad:2c:a7:41:
                    29:55:c9:70:b3:b5:15:46:34:bf:e4:1e:52:2d:a4:
                    49:2e:d5:21:ed:fc:00:f7:a2:0b:bc:12:0a:90:64:
                    50:7c:c5:14:70:f5:fb:9b:62:08:78:43:49:31:f3:
                    47:b8:93:d4:2d:4c:a9:dc:17:70:76:34:66:ff:65:
                    c1:39:67:e9:a6:1c:80:6a:f0:9d:b3:28:c8:a3:3a:
                    b7:5d:de:6e:53:6d:09:b3:0d:b1:13:10:e8:ec:e0:
                    bd:5e:a1:94:4b:70:bf:dc:bd:8b:b9:82:65:dd:af:
                    81:7b
                Exponent: 65537 (0x10001)
        X509v3 extensions:
            X509v3 Basic Constraints: 
                CA:FALSE
            Netscape Comment: 
                nats.io nats-server test-suite certificate
            X509v3 Subject Key Identifier: 
                2B:8C:A3:8B:DB:DB:5C:CE:18:DB:F6:A8:31:4E:C2:3E:EE:D3:40:7E
            X509v3 Authority Key Identifier: 
                keyid:FE:CF:7F:3E:2E:EE:C4:AD:EA:5B:6F:88:45:6C:C7:88:48:14:8B:3A
                DirName:/C=US/ST=California/O=Synadia/OU=nats.io/CN=Certificate Authority 2022-08-27
                serial:49:9C:16:ED:BB:5C:F4:45:1B:AC:C5:AD:8C:7A:5B:33:40:B6:6D:21

            X509v3 Subject Alternative Name: 
                DNS:localhost, IP Address:127.0.0.1, IP Address:0:0:0:0:0:0:0:1
            Netscape Cert Type: 
                SSL Client, SSL Server
            X509v3 Key Usage: 
                Digital Signature, Key Encipherment
            X509v3 Extended Key Usage: 
                TLS Web Server Authentication, Netscape Server Gated Crypto, Microsoft Server Gated Crypto, TLS Web Client Authentication
    Signature Algorithm: sha256WithRSAEncryption
         54:49:34:2b:38:d1:aa:3b:43:60:4c:3f:6a:f8:74:ca:49:53:
         a1:af:12:d3:a8:17:90:7b:9d:a3:69:13:6e:da:2c:b7:61:31:
         ac:eb:00:93:92:fc:0c:10:d4:18:a0:16:61:94:4b:42:cb:eb:
         7a:f6:80:c6:45:c0:9c:09:aa:a9:48:e8:36:e3:c5:be:36:e0:
         e9:78:2a:bb:ab:64:9b:20:eb:e6:0f:63:2b:59:c3:58:0b:3a:
         84:15:04:c1:7e:12:03:1b:09:25:8d:4c:03:e8:18:26:c0:6c:
         b7:90:b1:fd:bc:f1:cf:d0:d5:4a:03:15:71:0c:7d:c1:76:87:
         92:f1:3e:bc:75:51:5a:c4:36:a4:ff:91:98:df:33:5d:a7:38:
         de:50:29:fd:0f:c8:55:e6:8f:24:c2:2e:98:ab:d9:5d:65:2f:
         50:cc:25:f6:84:f2:21:2e:5e:76:d0:86:1e:69:8b:cb:8a:3a:
         2d:79:21:5e:e7:f7:2d:06:18:a1:13:cb:01:c3:46:91:2a:de:
         b4:82:d7:c3:62:6f:08:a1:d5:90:19:30:9d:64:8e:e4:f8:ba:
         4f:2f:ba:13:b4:a3:9f:d1:d5:77:64:8a:3e:eb:53:c5:47:ac:
         ab:3e:0e:7a:9b:a6:f4:48:25:66:eb:c7:4c:f9:50:24:eb:71:
         e0:75:ae:e6
-----BEGIN CERTIFICATE-----
MIIE+TCCA+GgAwIBAgIUHdkfBt39kCZOJ+ouAUsx5tJJMR8wDQYJKoZIhvcNAQEL
BQAwcTELMAkGA1UEBhMCVVMxEzARBgNVBAgMCkNhbGlmb3JuaWExEDAOBgNVBAoM
B1N5bmFkaWExEDAOBgNVBAsMB25hdHMuaW8xKTAnBgNVBAMMIENlcnRpZmljYXRl
IEF1dGhvcml0eSAyMDIyLTA4LTI3MB4XDTIyMDgyNzIwMjMwMloXDTMyMDgyNDIw
MjMwMlowWjELMAkGA1UEBhMCVVMxEzARBgNVBAgMCkNhbGlmb3JuaWExEDAOBgNV
BAoMB1N5bmFkaWExEDAOBgNVBAsMB25hdHMuaW8xEjAQBgNVBAMMCWxvY2FsaG9z
dDCCASIwDQYJKoZIhvcNAQEBBQADggEPADCCAQoCggEBAOb7R2XNyaItr4vN1Wp5
VDwHX+tacSsr5W++MfsWZWh2Dlnn5FfKiOl31kGtV3pCstJUxA98W8G8YZfjIjo+
HkpdR59rfW8044yGnYUZKZoRWERMoZDTFGHhV9oB6s4/kK6eXRNtLInKORVrtp4y
1ypMSIUvsB7YS2IyFOsytikENDyvObaLUjJNv0Nfm/sNQ6atLKdBKVXJcLO1FUY0
v+QeUi2kSS7VIe38APeiC7wSCpBkUHzFFHD1+5tiCHhDSTHzR7iT1C1MqdwXcHY0
Zv9lwTln6aYcgGrwnbMoyKM6t13eblNtCbMNsRMQ6OzgvV6hlEtwv9y9i7mCZd2v
gXsCAwEAAaOCAZ4wggGaMAkGA1UdEwQCMAAwOQYJYIZIAYb4QgENBCwWKm5hdHMu
aW8gbmF0cy1zZXJ2ZXIgdGVzdC1zdWl0ZSBjZXJ0aWZpY2F0ZTAdBgNVHQ4EFgQU
K4yji9vbXM4Y2/aoMU7CPu7TQH4wga4GA1UdIwSBpjCBo4AU/s9/Pi7uxK3qW2+I
RWzHiEgUizqhdaRzMHExCzAJBgNVBAYTAlVTMRMwEQYDVQQIDApDYWxpZm9ybmlh
MRAwDgYDVQQKDAdTeW5hZGlhMRAwDgYDVQQLDAduYXRzLmlvMSkwJwYDVQQDDCBD
ZXJ0aWZpY2F0ZSBBdXRob3JpdHkgMjAyMi0wOC0yN4IUSZwW7btc9EUbrMWtjHpb
M0C2bSEwLAYDVR0RBCUwI4IJbG9jYWxob3N0hwR/AAABhxAAAAAAAAAAAAAAAAAA
AAABMBEGCWCGSAGG+EIBAQQEAwIGwDALBgNVHQ8EBAMCBaAwNAYDVR0lBC0wKwYI
KwYBBQUHAwEGCWCGSAGG+EIEAQYKKwYBBAGCNwoDAwYIKwYBBQUHAwIwDQYJKoZI
hvcNAQELBQADggEBAFRJNCs40ao7Q2BMP2r4dMpJU6GvEtOoF5B7naNpE27aLLdh
MazrAJOS/AwQ1BigFmGUS0LL63r2gMZFwJwJqqlI6Dbjxb424Ol4KrurZJsg6+YP
YytZw1gLOoQVBMF+EgMbCSWNTAPoGCbAbLeQsf288c/Q1UoDFXEMfcF2h5LxPrx1
UVrENqT/kZjfM12nON5QKf0PyFXmjyTCLpir2V1lL1DMJfaE8iEuXnbQhh5pi8uK
Oi15IV7n9y0GGKETywHDRpEq3rSC18Nibwih1ZAZMJ1kjuT4uk8vuhO0o5/R1Xdk
ij7rU8VHrKs+DnqbpvRIJWbrx0z5UCTrceB1ruY=
-----END CERTIFICATE-----
