Certificate:
    Data:
        Version: 3 (0x2)
        Serial Number:
            11:e2:4c:74:6c:01:8d:80:99:50:b1:3c:b8:96:31:21:3d:ac:f0:23
        Signature Algorithm: sha256WithRSAEncryption
        Issuer: CN=localhost
        Validity
            Not Before: Aug 14 00:09:15 2024 GMT
            Not After : Aug 14 00:09:15 2025 GMT
        Subject: CN=localhost
        Subject Public Key Info:
            Public Key Algorithm: rsaEncryption
                Public-Key: (2048 bit)
                Modulus:
                    00:bd:c4:7c:12:38:0f:52:5b:35:3c:58:e0:b5:f8:
                    f2:2f:a6:e7:46:0f:48:5a:21:4a:3a:ea:5f:02:16:
                    15:08:0c:f3:10:ec:d8:e7:ea:2f:03:34:93:7c:c3:
                    09:18:8a:cd:9b:69:e0:60:56:41:66:2e:75:bc:ad:
                    a8:88:37:16:9d:a5:dd:c2:93:70:2a:06:00:1c:bf:
                    89:cc:eb:a2:d3:9a:9c:bb:f8:31:98:0a:4f:1a:21:
                    92:ec:87:8c:3c:e1:04:83:81:d9:07:de:05:36:0e:
                    c8:a8:aa:da:91:e7:cb:16:47:3b:bd:6c:67:f2:6e:
                    b6:62:68:c0:39:20:45:f8:5d:b9:05:c9:53:75:c0:
                    63:c0:41:30:1d:19:a5:8d:7d:c5:f0:5e:cf:5f:8d:
                    17:c8:20:6a:47:ee:63:4d:67:5f:39:7f:7c:77:ec:
                    02:08:bc:ff:3c:36:ff:42:36:1e:40:7b:a3:52:e7:
                    91:65:41:0e:17:62:fd:03:0e:1e:78:50:19:f2:f2:
                    b1:a9:75:70:ef:85:00:74:f4:ee:4d:55:e7:2e:df:
                    31:5f:68:8e:8e:eb:91:a2:44:6c:aa:ac:95:dc:61:
                    9e:2a:48:be:b4:b7:cb:ae:8c:51:84:15:3c:4f:bc:
                    f6:71:88:a7:bd:ba:81:1f:7d:a9:be:98:76:45:60:
                    f1:85
                Exponent: 65537 (0x10001)
        X509v3 extensions:
            X509v3 Subject Key Identifier: 
                DC:DE:BD:ED:43:1E:13:8B:D9:7A:76:97:31:9C:5A:DB:81:2C:5A:E6
            X509v3 Authority Key Identifier: 
                DC:DE:BD:ED:43:1E:13:8B:D9:7A:76:97:31:9C:5A:DB:81:2C:5A:E6
            X509v3 Basic Constraints: critical
                CA:TRUE
    Signature Algorithm: sha256WithRSAEncryption
    Signature Value:
        82:aa:d5:f6:64:32:f1:42:22:49:b7:37:9b:79:3b:ca:bf:9c:
        18:bb:7d:52:41:40:58:de:fb:53:ee:7b:a2:82:48:15:79:58:
        da:82:1d:73:0c:d2:9e:fe:9d:9e:8b:77:d4:c9:ef:a5:d8:06:
        e1:6b:ad:f7:30:c1:b5:b8:d2:84:fd:81:43:d2:4c:db:00:bb:
        3f:ed:13:43:8e:ea:24:98:26:c4:73:14:a8:13:a6:9a:b2:71:
        cb:dd:9d:f2:94:51:e4:33:d9:84:14:b3:5e:90:75:83:01:4d:
        b0:ad:85:ab:66:34:17:8b:9b:c0:57:94:43:d0:ed:47:de:1b:
        9c:a5:f3:7a:a5:df:9f:de:7f:46:9f:9a:76:ce:72:39:71:39:
        11:6f:8b:aa:c5:5a:5c:09:d7:42:8d:ed:a3:bb:b9:be:0c:9f:
        e6:50:56:ef:d6:c6:c2:46:14:35:34:25:04:c7:17:2c:e3:91:
        31:03:ef:ba:de:3d:8b:ee:33:0e:7e:3a:f4:27:76:43:6d:1c:
        a4:07:d3:de:2e:dd:dc:10:9c:c3:43:04:78:85:e4:56:eb:d8:
        5b:a8:da:1d:74:89:8d:3b:f3:da:fe:41:64:16:17:c6:30:6c:
        24:91:10:98:30:57:4c:19:bf:58:ae:77:5f:40:6d:31:4b:58:
        fc:69:5a:cc
-----BEGIN CERTIFICATE-----
MIIDCTCCAfGgAwIBAgIUEeJMdGwBjYCZULE8uJYxIT2s8CMwDQYJKoZIhvcNAQEL
BQAwFDESMBAGA1UEAwwJbG9jYWxob3N0MB4XDTI0MDgxNDAwMDkxNVoXDTI1MDgx
NDAwMDkxNVowFDESMBAGA1UEAwwJbG9jYWxob3N0MIIBIjANBgkqhkiG9w0BAQEF
AAOCAQ8AMIIBCgKCAQEAvcR8EjgPUls1PFjgtfjyL6bnRg9IWiFKOupfAhYVCAzz
EOzY5+ovAzSTfMMJGIrNm2ngYFZBZi51vK2oiDcWnaXdwpNwKgYAHL+JzOui05qc
u/gxmApPGiGS7IeMPOEEg4HZB94FNg7IqKrakefLFkc7vWxn8m62YmjAOSBF+F25
BclTdcBjwEEwHRmljX3F8F7PX40XyCBqR+5jTWdfOX98d+wCCLz/PDb/QjYeQHuj
UueRZUEOF2L9Aw4eeFAZ8vKxqXVw74UAdPTuTVXnLt8xX2iOjuuRokRsqqyV3GGe
Kki+tLfLroxRhBU8T7z2cYinvbqBH32pvph2RWDxhQIDAQABo1MwUTAdBgNVHQ4E
FgQU3N697UMeE4vZenaXMZxa24EsWuYwHwYDVR0jBBgwFoAU3N697UMeE4vZenaX
MZxa24EsWuYwDwYDVR0TAQH/BAUwAwEB/zANBgkqhkiG9w0BAQsFAAOCAQEAgqrV
9mQy8UIiSbc3m3k7yr+cGLt9UkFAWN77U+57ooJIFXlY2oIdcwzSnv6dnot31Mnv
pdgG4Wut9zDBtbjShP2BQ9JM2wC7P+0TQ47qJJgmxHMUqBOmmrJxy92d8pRR5DPZ
hBSzXpB1gwFNsK2Fq2Y0F4ubwFeUQ9DtR94bnKXzeqXfn95/Rp+ads5yOXE5EW+L
qsVaXAnXQo3to7u5vgyf5lBW79bGwkYUNTQlBMcXLOORMQPvut49i+4zDn469Cd2
Q20cpAfT3i7d3BCcw0MEeIXkVuvYW6jaHXSJjTvz2v5BZBYXxjBsJJEQmDBXTBm/
WK53X0BtMUtY/GlazA==
-----END CERTIFICATE-----
